target datalayout = "e-m:e-p270:32:32-p271:32:32-p272:64:64-i64:64-i128:128-f80:128-n8:16:32:64-S128"
target triple = "x86_64-pc-linux-gnu"

%struct.SDL_AudioSpec = type { i32, i32, i32 }

; Function Attrs: nounwind uwtable
define hidden zeroext i1 @SDL_AudioSpecsEqual(ptr noundef %0, ptr noundef %1, ptr noundef %2, ptr noundef %3) #0 {
  %5 = alloca i1, align 1
  %6 = alloca ptr, align 8
  %7 = alloca ptr, align 8
  %8 = alloca ptr, align 8
  %9 = alloca ptr, align 8
  store ptr %0, ptr %6, align 8
  store ptr %1, ptr %7, align 8
  store ptr %2, ptr %8, align 8
  store ptr %3, ptr %9, align 8
  %10 = load ptr, ptr %6, align 8
  %11 = getelementptr inbounds nuw %struct.SDL_AudioSpec, ptr %10, i32 0, i32 0
  %12 = load i32, ptr %11, align 4
  %13 = load ptr, ptr %7, align 8
  %14 = getelementptr inbounds nuw %struct.SDL_AudioSpec, ptr %13, i32 0, i32 0
  %15 = load i32, ptr %14, align 4
  %16 = icmp ne i32 %12, %15
  br i1 %16, label %41, label %17

17:                                               ; preds = %4
  %18 = load ptr, ptr %6, align 8
  %19 = getelementptr inbounds nuw %struct.SDL_AudioSpec, ptr %18, i32 0, i32 1
  %20 = load i32, ptr %19, align 4
  %21 = load ptr, ptr %7, align 8
  %22 = getelementptr inbounds nuw %struct.SDL_AudioSpec, ptr %21, i32 0, i32 1
  %23 = load i32, ptr %22, align 4
  %24 = icmp ne i32 %20, %23
  br i1 %24, label %41, label %25

25:                                               ; preds = %17
  %26 = load ptr, ptr %6, align 8
  %27 = getelementptr inbounds nuw %struct.SDL_AudioSpec, ptr %26, i32 0, i32 2
  %28 = load i32, ptr %27, align 4
  %29 = load ptr, ptr %7, align 8
  %30 = getelementptr inbounds nuw %struct.SDL_AudioSpec, ptr %29, i32 0, i32 2
  %31 = load i32, ptr %30, align 4
  %32 = icmp ne i32 %28, %31
  br i1 %32, label %41, label %33

33:                                               ; preds = %25
  %34 = load ptr, ptr %8, align 8
  %35 = icmp ne ptr %34, null
  %36 = zext i1 %35 to i32
  %37 = load ptr, ptr %9, align 8
  %38 = icmp ne ptr %37, null
  %39 = zext i1 %38 to i32
  %40 = icmp ne i32 %36, %39
  br i1 %40, label %41, label %42

41:                                               ; preds = %33, %25, %17, %4
  store i1 false, ptr %5, align 1
  br label %58

42:                                               ; preds = %33
  %43 = load ptr, ptr %8, align 8
  %44 = icmp ne ptr %43, null
  br i1 %44, label %45, label %56

45:                                               ; preds = %42
  %46 = load ptr, ptr %8, align 8
  %47 = load ptr, ptr %9, align 8
  %48 = load ptr, ptr %6, align 8
  %49 = getelementptr inbounds nuw %struct.SDL_AudioSpec, ptr %48, i32 0, i32 1
  %50 = load i32, ptr %49, align 4
  %51 = sext i32 %50 to i64
  %52 = mul i64 4, %51
  %53 = call i32 @SDL_memcmp_REAL(ptr noundef %46, ptr noundef %47, i64 noundef %52)
  %54 = icmp ne i32 %53, 0
  br i1 %54, label %55, label %56

55:                                               ; preds = %45
  store i1 false, ptr %5, align 1
  br label %58

56:                                               ; preds = %45, %42
  br label %57

57:                                               ; preds = %56
  store i1 true, ptr %5, align 1
  br label %58

58:                                               ; preds = %57, %55, %41
  %59 = load i1, ptr %5, align 1
  ret i1 %59
}