; Function Attrs: nounwind uwtable
define hidden noundef zeroext i1 @SDL_AudioSpecsEqual(ptr noundef readonly captures(none) %0, ptr noundef readonly captures(none) %1, ptr noundef %2, ptr noundef %3) local_unnamed_addr #0 {
  %5 = load i32, ptr %0, align 4
  %6 = load i32, ptr %1, align 4
  %.not = icmp eq i32 %5, %6
  br i1 %.not, label %7, label %26

7:                                                ; preds = %4
  %8 = getelementptr inbounds nuw i8, ptr %0, i64 4
  %9 = load i32, ptr %8, align 4
  %10 = getelementptr inbounds nuw i8, ptr %1, i64 4
  %11 = load i32, ptr %10, align 4
  %.not15 = icmp eq i32 %9, %11
  br i1 %.not15, label %12, label %26

12:                                               ; preds = %7
  %13 = getelementptr inbounds nuw i8, ptr %0, i64 8
  %14 = load i32, ptr %13, align 4
  %15 = getelementptr inbounds nuw i8, ptr %1, i64 8
  %16 = load i32, ptr %15, align 4
  %.not16 = icmp eq i32 %14, %16
  br i1 %.not16, label %17, label %26

17:                                               ; preds = %12
  %18 = icmp ne ptr %2, null
  %19 = icmp eq ptr %3, null
  %.not17 = xor i1 %18, %19
  br i1 %.not17, label %20, label %26

20:                                               ; preds = %17
  br i1 %18, label %21, label %25

21:                                               ; preds = %20
  %22 = sext i32 %9 to i64
  %23 = shl nsw i64 %22, 2
  %24 = tail call i32 @SDL_memcmp_REAL(ptr noundef nonnull %2, ptr noundef %3, i64 noundef %23) #14
  %.not18 = icmp eq i32 %24, 0
  br i1 %.not18, label %25, label %26

25:                                               ; preds = %20, %21
  br label %26

26:                                               ; preds = %21, %4, %7, %12, %17, %25
  %.0 = phi i1 [ true, %25 ], [ false, %17 ], [ false, %12 ], [ false, %7 ], [ false, %4 ], [ false, %21 ]
  ret i1 %.0
}